target datalayout = "e-m:e-p270:32:32-p271:32:32-p272:64:64-i64:64-i128:128-f80:128-n8:16:32:64-S128"
target triple = "x86_64-pc-linux-gnu"

%struct.BipartiteMatchState = type { i32, i32, ptr, i32, ptr, ptr, ptr, ptr }

; Function Attrs: nounwind uwtable
define internal zeroext i1 @hk_depth_search(ptr noundef %0, i32 noundef %1) #0 {
  %3 = alloca i1, align 1
  %4 = alloca ptr, align 8
  %5 = alloca i32, align 4
  %6 = alloca ptr, align 8
  %7 = alloca ptr, align 8
  %8 = alloca ptr, align 8
  %9 = alloca ptr, align 8
  %10 = alloca i32, align 4
  %11 = alloca i16, align 2
  %12 = alloca i32, align 4
  %13 = alloca i32, align 4
  store ptr %0, ptr %4, align 8
  store i32 %1, ptr %5, align 4
  call void @llvm.lifetime.start.p0(i64 8, ptr %6) #5
  %14 = load ptr, ptr %4, align 8
  %15 = getelementptr inbounds nuw %struct.BipartiteMatchState, ptr %14, i32 0, i32 6
  %16 = load ptr, ptr %15, align 8
  store ptr %16, ptr %6, align 8
  call void @llvm.lifetime.start.p0(i64 8, ptr %7) #5
  %17 = load ptr, ptr %4, align 8
  %18 = getelementptr inbounds nuw %struct.BipartiteMatchState, ptr %17, i32 0, i32 4
  %19 = load ptr, ptr %18, align 8
  store ptr %19, ptr %7, align 8
  call void @llvm.lifetime.start.p0(i64 8, ptr %8) #5
  %20 = load ptr, ptr %4, align 8
  %21 = getelementptr inbounds nuw %struct.BipartiteMatchState, ptr %20, i32 0, i32 5
  %22 = load ptr, ptr %21, align 8
  store ptr %22, ptr %8, align 8
  call void @llvm.lifetime.start.p0(i64 8, ptr %9) #5
  %23 = load ptr, ptr %4, align 8
  %24 = getelementptr inbounds nuw %struct.BipartiteMatchState, ptr %23, i32 0, i32 2
  %25 = load ptr, ptr %24, align 8
  %26 = load i32, ptr %5, align 4
  %27 = sext i32 %26 to i64
  %28 = getelementptr inbounds ptr, ptr %25, i64 %27
  %29 = load ptr, ptr %28, align 8
  store ptr %29, ptr %9, align 8
  call void @llvm.lifetime.start.p0(i64 4, ptr %10) #5
  %30 = load ptr, ptr %9, align 8
  %31 = icmp ne ptr %30, null
  br i1 %31, label %32, label %37

32:                                               ; preds = %2
  %33 = load ptr, ptr %9, align 8
  %34 = getelementptr inbounds i16, ptr %33, i64 0
  %35 = load i16, ptr %34, align 2
  %36 = sext i16 %35 to i32
  br label %38

37:                                               ; preds = %2
  br label %38

38:                                               ; preds = %37, %32
  %39 = phi i32 [ %36, %32 ], [ 0, %37 ]
  store i32 %39, ptr %10, align 4
  call void @llvm.lifetime.start.p0(i64 2, ptr %11) #5
  %40 = load i32, ptr %5, align 4
  %41 = icmp eq i32 %40, 0
  br i1 %41, label %42, label %43

42:                                               ; preds = %38
  store i1 true, ptr %3, align 1
  store i32 1, ptr %12, align 4
  br label %119

43:                                               ; preds = %38
  %44 = load ptr, ptr %6, align 8
  %45 = load i32, ptr %5, align 4
  %46 = sext i32 %45 to i64
  %47 = getelementptr inbounds i16, ptr %44, i64 %46
  %48 = load i16, ptr %47, align 2
  %49 = sext i16 %48 to i32
  %50 = icmp eq i32 %49, 32767
  br i1 %50, label %51, label %52

51:                                               ; preds = %43
  store i1 false, ptr %3, align 1
  store i32 1, ptr %12, align 4
  br label %119

52:                                               ; preds = %43
  %53 = load ptr, ptr %6, align 8
  %54 = load i32, ptr %5, align 4
  %55 = sext i32 %54 to i64
  %56 = getelementptr inbounds i16, ptr %53, i64 %55
  %57 = load i16, ptr %56, align 2
  %58 = sext i16 %57 to i32
  %59 = add i32 %58, 1
  %60 = trunc i32 %59 to i16
  store i16 %60, ptr %11, align 2
  call void @check_stack_depth()
  br label %61

61:                                               ; preds = %111, %52
  %62 = load i32, ptr %10, align 4
  %63 = icmp sgt i32 %62, 0
  br i1 %63, label %64, label %114

64:                                               ; preds = %61
  call void @llvm.lifetime.start.p0(i64 4, ptr %13) #5
  %65 = load ptr, ptr %9, align 8
  %66 = load i32, ptr %10, align 4
  %67 = sext i32 %66 to i64
  %68 = getelementptr inbounds i16, ptr %65, i64 %67
  %69 = load i16, ptr %68, align 2
  %70 = sext i16 %69 to i32
  store i32 %70, ptr %13, align 4
  %71 = load ptr, ptr %6, align 8
  %72 = load ptr, ptr %8, align 8
  %73 = load i32, ptr %13, align 4
  %74 = sext i32 %73 to i64
  %75 = getelementptr inbounds i16, ptr %72, i64 %74
  %76 = load i16, ptr %75, align 2
  %77 = sext i16 %76 to i64
  %78 = getelementptr inbounds i16, ptr %71, i64 %77
  %79 = load i16, ptr %78, align 2
  %80 = sext i16 %79 to i32
  %81 = load i16, ptr %11, align 2
  %82 = sext i16 %81 to i32
  %83 = icmp eq i32 %80, %82
  br i1 %83, label %84, label %107

84:                                               ; preds = %64
  %85 = load ptr, ptr %4, align 8
  %86 = load ptr, ptr %8, align 8
  %87 = load i32, ptr %13, align 4
  %88 = sext i32 %87 to i64
  %89 = getelementptr inbounds i16, ptr %86, i64 %88
  %90 = load i16, ptr %89, align 2
  %91 = sext i16 %90 to i32
  %92 = call zeroext i1 @hk_depth_search(ptr noundef %85, i32 noundef %91)
  br i1 %92, label %93, label %106

93:                                               ; preds = %84
  %94 = load i32, ptr %5, align 4
  %95 = trunc i32 %94 to i16
  %96 = load ptr, ptr %8, align 8
  %97 = load i32, ptr %13, align 4
  %98 = sext i32 %97 to i64
  %99 = getelementptr inbounds i16, ptr %96, i64 %98
  store i16 %95, ptr %99, align 2
  %100 = load i32, ptr %13, align 4
  %101 = trunc i32 %100 to i16
  %102 = load ptr, ptr %7, align 8
  %103 = load i32, ptr %5, align 4
  %104 = sext i32 %103 to i64
  %105 = getelementptr inbounds i16, ptr %102, i64 %104
  store i16 %101, ptr %105, align 2
  store i1 true, ptr %3, align 1
  store i32 1, ptr %12, align 4
  br label %108

106:                                              ; preds = %84
  br label %107

107:                                              ; preds = %106, %64
  store i32 0, ptr %12, align 4
  br label %108

108:                                              ; preds = %107, %93
  call void @llvm.lifetime.end.p0(i64 4, ptr %13) #5
  %109 = load i32, ptr %12, align 4
  switch i32 %109, label %119 [
    i32 0, label %110
  ]

110:                                              ; preds = %108
  br label %111

111:                                              ; preds = %110
  %112 = load i32, ptr %10, align 4
  %113 = add i32 %112, -1
  store i32 %113, ptr %10, align 4
  br label %61, !llvm.loop !10

114:                                              ; preds = %61
  %115 = load ptr, ptr %6, align 8
  %116 = load i32, ptr %5, align 4
  %117 = sext i32 %116 to i64
  %118 = getelementptr inbounds i16, ptr %115, i64 %117
  store i16 32767, ptr %118, align 2
  store i1 false, ptr %3, align 1
  store i32 1, ptr %12, align 4
  br label %119

119:                                              ; preds = %114, %108, %51, %42
  call void @llvm.lifetime.end.p0(i64 2, ptr %11) #5
  call void @llvm.lifetime.end.p0(i64 4, ptr %10) #5
  call void @llvm.lifetime.end.p0(i64 8, ptr %9) #5
  call void @llvm.lifetime.end.p0(i64 8, ptr %8) #5
  call void @llvm.lifetime.end.p0(i64 8, ptr %7) #5
  call void @llvm.lifetime.end.p0(i64 8, ptr %6) #5
  %120 = load i1, ptr %3, align 1
  ret i1 %120
}