; Function Attrs: nounwind uwtable
define internal fastcc noundef zeroext i1 @hk_depth_search(ptr noundef readonly captures(none) %0, i32 noundef range(i32 -2147483648, 32768) %1) unnamed_addr #0 {
  %3 = getelementptr inbounds nuw i8, ptr %0, i64 40
  %4 = load ptr, ptr %3, align 8
  %5 = getelementptr inbounds nuw i8, ptr %0, i64 24
  %6 = load ptr, ptr %5, align 8
  %7 = getelementptr inbounds nuw i8, ptr %0, i64 32
  %8 = load ptr, ptr %7, align 8
  %9 = getelementptr inbounds nuw i8, ptr %0, i64 8
  %10 = load ptr, ptr %9, align 8
  %11 = sext i32 %1 to i64
  %12 = getelementptr inbounds ptr, ptr %10, i64 %11
  %13 = load ptr, ptr %12, align 8
  %.not = icmp eq ptr %13, null
  br i1 %.not, label %17, label %14

14:                                               ; preds = %2
  %15 = load i16, ptr %13, align 2
  %16 = sext i16 %15 to i32
  br label %17

17:                                               ; preds = %2, %14
  %18 = phi i32 [ %16, %14 ], [ 0, %2 ]
  %19 = icmp eq i32 %1, 0
  br i1 %19, label %45, label %20

20:                                               ; preds = %17
  %21 = getelementptr inbounds i16, ptr %4, i64 %11
  %22 = load i16, ptr %21, align 2
  %23 = icmp eq i16 %22, 32767
  br i1 %23, label %45, label %24

24:                                               ; preds = %20
  %25 = add nsw i16 %22, 1
  tail call void @check_stack_depth() #5
  %26 = icmp sgt i32 %18, 0
  br i1 %26, label %.lr.ph.preheader, label %._crit_edge

.lr.ph.preheader:                                 ; preds = %24
  %27 = zext nneg i32 %18 to i64
  br label %.lr.ph

.lr.ph:                                           ; preds = %.lr.ph.preheader, %43
  %indvars.iv = phi i64 [ %27, %.lr.ph.preheader ], [ %indvars.iv.next, %43 ]
  %28 = getelementptr inbounds nuw i16, ptr %13, i64 %indvars.iv
  %29 = load i16, ptr %28, align 2
  %30 = sext i16 %29 to i64
  %31 = getelementptr inbounds i16, ptr %8, i64 %30
  %32 = load i16, ptr %31, align 2
  %33 = sext i16 %32 to i64
  %34 = getelementptr inbounds i16, ptr %4, i64 %33
  %35 = load i16, ptr %34, align 2
  %36 = icmp eq i16 %35, %25
  br i1 %36, label %37, label %43

37:                                               ; preds = %.lr.ph
  %38 = sext i16 %32 to i32
  %39 = tail call fastcc zeroext i1 @hk_depth_search(ptr noundef %0, i32 noundef %38)
  br i1 %39, label %.critedge, label %43

.critedge:                                        ; preds = %37
  %40 = getelementptr inbounds i16, ptr %8, i64 %30
  %41 = trunc i32 %1 to i16
  store i16 %41, ptr %40, align 2
  %42 = getelementptr inbounds i16, ptr %6, i64 %11
  store i16 %29, ptr %42, align 2
  br label %45

43:                                               ; preds = %37, %.lr.ph
  %indvars.iv.next = add nsw i64 %indvars.iv, -1
  %44 = icmp sgt i64 %indvars.iv, 1
  br i1 %44, label %.lr.ph, label %._crit_edge, !llvm.loop !11

._crit_edge:                                      ; preds = %43, %24
  store i16 32767, ptr %21, align 2
  br label %45

45:                                               ; preds = %.critedge, %20, %17, %._crit_edge
  %.0 = phi i1 [ false, %._crit_edge ], [ true, %17 ], [ false, %20 ], [ true, %.critedge ]
  ret i1 %.0
}